target datalayout = "e-m:e-p270:32:32-p271:32:32-p272:64:64-i64:64-i128:128-f80:128-n8:16:32:64-S128"
target triple = "x86_64-pc-linux-gnu"

%"class.cv::Mat" = type { i32, i32, i32, i32, ptr, ptr, ptr, ptr, ptr, ptr, %"struct.cv::MatSize", %"struct.cv::MatStep" }
%"struct.cv::MatSize" = type { ptr }
%"struct.cv::MatStep" = type { ptr, [2 x i64] }

; Function Attrs: inlinehint mustprogress nounwind uwtable
define linkonce_odr hidden noundef i32 @_ZNK2cv3Mat4typeEv(ptr noundef nonnull align 8 dereferenceable(96) %0) #6 comdat align 2 {
  %2 = alloca ptr, align 8
  store ptr %0, ptr %2, align 8, !tbaa !34
  %3 = load ptr, ptr %2, align 8
  %4 = getelementptr inbounds nuw %"class.cv::Mat", ptr %3, i32 0, i32 0
  %5 = load i32, ptr %4, align 8, !tbaa !79
  %6 = and i32 %5, 4095
  ret i32 %6
}

; Function Attrs: mustprogress uwtable
define void @_ZN2cv3Mat6createEiii(ptr noundef nonnull align 8 dereferenceable(96) %0, i32 noundef %1, i32 noundef %2, i32 noundef %3) #1 align 2 {
  %5 = alloca ptr, align 8
  %6 = alloca i32, align 4
  %7 = alloca i32, align 4
  %8 = alloca i32, align 4
  %9 = alloca [2 x i32], align 4
  store ptr %0, ptr %5, align 8, !tbaa !34
  store i32 %1, ptr %6, align 4, !tbaa !26
  store i32 %2, ptr %7, align 4, !tbaa !26
  store i32 %3, ptr %8, align 4, !tbaa !26
  %10 = load ptr, ptr %5, align 8
  %11 = load i32, ptr %8, align 4, !tbaa !26
  %12 = and i32 %11, 4095
  store i32 %12, ptr %8, align 4, !tbaa !26
  %13 = getelementptr inbounds nuw %"class.cv::Mat", ptr %10, i32 0, i32 1
  %14 = load i32, ptr %13, align 4, !tbaa !72
  %15 = icmp sle i32 %14, 2
  br i1 %15, label %16, label %35

16:                                               ; preds = %4
  %17 = getelementptr inbounds nuw %"class.cv::Mat", ptr %10, i32 0, i32 2
  %18 = load i32, ptr %17, align 8, !tbaa !78
  %19 = load i32, ptr %6, align 4, !tbaa !26
  %20 = icmp eq i32 %18, %19
  br i1 %20, label %21, label %35

21:                                               ; preds = %16
  %22 = getelementptr inbounds nuw %"class.cv::Mat", ptr %10, i32 0, i32 3
  %23 = load i32, ptr %22, align 4, !tbaa !77
  %24 = load i32, ptr %7, align 4, !tbaa !26
  %25 = icmp eq i32 %23, %24
  br i1 %25, label %26, label %35

26:                                               ; preds = %21
  %27 = call noundef i32 @_ZNK2cv3Mat4typeEv(ptr noundef nonnull align 8 dereferenceable(96) %10)
  %28 = load i32, ptr %8, align 4, !tbaa !26
  %29 = icmp eq i32 %27, %28
  br i1 %29, label %30, label %35

30:                                               ; preds = %26
  %31 = getelementptr inbounds nuw %"class.cv::Mat", ptr %10, i32 0, i32 4
  %32 = load ptr, ptr %31, align 8, !tbaa !89
  %33 = icmp ne ptr %32, null
  br i1 %33, label %34, label %35

34:                                               ; preds = %30
  br label %41

35:                                               ; preds = %30, %26, %21, %16, %4
  call void @llvm.lifetime.start.p0(i64 8, ptr %9) #7
  %36 = load i32, ptr %6, align 4, !tbaa !26
  store i32 %36, ptr %9, align 4, !tbaa !26
  %37 = getelementptr inbounds i32, ptr %9, i64 1
  %38 = load i32, ptr %7, align 4, !tbaa !26
  store i32 %38, ptr %37, align 4, !tbaa !26
  %39 = getelementptr inbounds [2 x i32], ptr %9, i64 0, i64 0
  %40 = load i32, ptr %8, align 4, !tbaa !26
  call void @_ZN2cv3Mat6createEiPKii(ptr noundef nonnull align 8 dereferenceable(96) %10, i32 noundef 2, ptr noundef %39, i32 noundef %40)
  call void @llvm.lifetime.end.p0(i64 8, ptr %9) #7
  br label %41

41:                                               ; preds = %35, %34
  ret void
}