; Function Attrs: mustprogress uwtable
define void @_ZN2cv3Mat6createEiii(ptr noundef nonnull align 8 dereferenceable(96) %0, i32 noundef %1, i32 noundef %2, i32 noundef %3) local_unnamed_addr #1 align 2 {
  %5 = alloca [2 x i32], align 4
  %6 = and i32 %3, 4095
  %7 = getelementptr inbounds nuw i8, ptr %0, i64 4
  %8 = load i32, ptr %7, align 4, !tbaa !53
  %9 = icmp slt i32 %8, 3
  %10 = getelementptr inbounds nuw i8, ptr %0, i64 8
  %11 = load i32, ptr %10, align 8
  %12 = icmp eq i32 %11, %1
  %or.cond = select i1 %9, i1 %12, i1 false
  %13 = getelementptr inbounds nuw i8, ptr %0, i64 12
  %14 = load i32, ptr %13, align 4
  %15 = icmp eq i32 %14, %2
  %or.cond11 = select i1 %or.cond, i1 %15, i1 false
  br i1 %or.cond11, label %16, label %22

16:                                               ; preds = %4
  %17 = load i32, ptr %0, align 8, !tbaa !61
  %18 = and i32 %17, 4095
  %19 = icmp ne i32 %18, %6
  %20 = getelementptr inbounds nuw i8, ptr %0, i64 16
  %21 = load ptr, ptr %20, align 8
  %.not = icmp eq ptr %21, null
  %or.cond13 = select i1 %19, i1 true, i1 %.not
  br i1 %or.cond13, label %22, label %24

22:                                               ; preds = %16, %4
  call void @llvm.lifetime.start.p0(i64 8, ptr nonnull %5) #24
  store i32 %1, ptr %5, align 4, !tbaa !23
  %23 = getelementptr inbounds nuw i8, ptr %5, i64 4
  store i32 %2, ptr %23, align 4, !tbaa !23
  call void @_ZN2cv3Mat6createEiPKii(ptr noundef nonnull align 8 dereferenceable(96) %0, i32 noundef 2, ptr noundef nonnull %5, i32 noundef %6)
  call void @llvm.lifetime.end.p0(i64 8, ptr nonnull %5) #24
  br label %24

24:                                               ; preds = %16, %22
  ret void
}